; Function Attrs: mustprogress ssp uwtable
define internal noundef zeroext i1 @"_ZNSt17_Function_handlerIFviRSt6vectorIN5Eigen6MatrixIdLi6ELi1ELi0ELi6ELi1EEENS1_17aligned_allocatorIS3_EEERS0_IdSaIdEESA_EZN6open3d9pipelines8odometryL17DoSingleIterationEiiRKNSC_8geometry9RGBDImageESI_RKNSF_5ImageESI_SI_NS2_IdLi3ELi3ELi0ELi3ELi3EEERKNS2_IdLi4ELi4ELi0ELi4ELi4EEERKNSE_20RGBDOdometryJacobianERKNSE_14OdometryOptionEE3$_0E10_M_managerERSt9_Any_dataRKSY_St18_Manager_operation"(ptr noundef nonnull align 8 captures(none) dereferenceable(16) %0, ptr noundef nonnull readonly align 8 captures(none) dereferenceable(16) %1, i32 noundef %2) #2 align 2 {
  switch i32 %2, label %"_ZNSt14_Function_base13_Base_managerIZN6open3d9pipelines8odometryL17DoSingleIterationEiiRKNS1_8geometry9RGBDImageES7_RKNS4_5ImageES7_S7_N5Eigen6MatrixIdLi3ELi3ELi0ELi3ELi3EEERKNSC_IdLi4ELi4ELi0ELi4ELi4EEERKNS3_20RGBDOdometryJacobianERKNS3_14OdometryOptionEE3$_0E10_M_managerERSt9_Any_dataRKSP_St18_Manager_operation.exit" [
    i32 0, label %4
    i32 1, label %5
    i32 3, label %8
    i32 2, label %6
  ]

4:                                                ; preds = %3
  store ptr @"_ZTIZN6open3d9pipelines8odometryL17DoSingleIterationEiiRKNS_8geometry9RGBDImageES5_RKNS2_5ImageES5_S5_N5Eigen6MatrixIdLi3ELi3ELi0ELi3ELi3EEERKNSA_IdLi4ELi4ELi0ELi4ELi4EEERKNS1_20RGBDOdometryJacobianERKNS1_14OdometryOptionEE3$_0", ptr %0, align 8, !tbaa !777
  br label %"_ZNSt14_Function_base13_Base_managerIZN6open3d9pipelines8odometryL17DoSingleIterationEiiRKNS1_8geometry9RGBDImageES7_RKNS4_5ImageES7_S7_N5Eigen6MatrixIdLi3ELi3ELi0ELi3ELi3EEERKNSC_IdLi4ELi4ELi0ELi4ELi4EEERKNS3_20RGBDOdometryJacobianERKNS3_14OdometryOptionEE3$_0E10_M_managerERSt9_Any_dataRKSP_St18_Manager_operation.exit"

5:                                                ; preds = %3
  %.val = load ptr, ptr %1, align 8, !tbaa !150
  store ptr %.val, ptr %0, align 8, !tbaa !150
  br label %"_ZNSt14_Function_base13_Base_managerIZN6open3d9pipelines8odometryL17DoSingleIterationEiiRKNS1_8geometry9RGBDImageES7_RKNS4_5ImageES7_S7_N5Eigen6MatrixIdLi3ELi3ELi0ELi3ELi3EEERKNSC_IdLi4ELi4ELi0ELi4ELi4EEERKNS3_20RGBDOdometryJacobianERKNS3_14OdometryOptionEE3$_0E10_M_managerERSt9_Any_dataRKSP_St18_Manager_operation.exit"

6:                                                ; preds = %3
  %.val6 = load ptr, ptr %1, align 8
  %7 = tail call noalias noundef nonnull dereferenceable(72) ptr @_Znwm(i64 noundef 72) #37
  tail call void @llvm.memcpy.p0.p0.i64(ptr noundef nonnull align 16 dereferenceable(72) %7, ptr noundef nonnull readonly align 8 dereferenceable(72) %.val6, i64 72, i1 false), !tbaa.struct !779
  store ptr %7, ptr %0, align 8, !tbaa !150
  br label %"_ZNSt14_Function_base13_Base_managerIZN6open3d9pipelines8odometryL17DoSingleIterationEiiRKNS1_8geometry9RGBDImageES7_RKNS4_5ImageES7_S7_N5Eigen6MatrixIdLi3ELi3ELi0ELi3ELi3EEERKNSC_IdLi4ELi4ELi0ELi4ELi4EEERKNS3_20RGBDOdometryJacobianERKNS3_14OdometryOptionEE3$_0E10_M_managerERSt9_Any_dataRKSP_St18_Manager_operation.exit"

8:                                                ; preds = %3
  %.val7.i = load ptr, ptr %0, align 8, !tbaa !150
  %9 = icmp eq ptr %.val7.i, null
  br i1 %9, label %"_ZNSt14_Function_base13_Base_managerIZN6open3d9pipelines8odometryL17DoSingleIterationEiiRKNS1_8geometry9RGBDImageES7_RKNS4_5ImageES7_S7_N5Eigen6MatrixIdLi3ELi3ELi0ELi3ELi3EEERKNSC_IdLi4ELi4ELi0ELi4ELi4EEERKNS3_20RGBDOdometryJacobianERKNS3_14OdometryOptionEE3$_0E10_M_managerERSt9_Any_dataRKSP_St18_Manager_operation.exit", label %10

10:                                               ; preds = %8
  tail call void @_ZdlPvm(ptr noundef nonnull %.val7.i, i64 noundef 72) #35
  br label %"_ZNSt14_Function_base13_Base_managerIZN6open3d9pipelines8odometryL17DoSingleIterationEiiRKNS1_8geometry9RGBDImageES7_RKNS4_5ImageES7_S7_N5Eigen6MatrixIdLi3ELi3ELi0ELi3ELi3EEERKNSC_IdLi4ELi4ELi0ELi4ELi4EEERKNS3_20RGBDOdometryJacobianERKNS3_14OdometryOptionEE3$_0E10_M_managerERSt9_Any_dataRKSP_St18_Manager_operation.exit"

"_ZNSt14_Function_base13_Base_managerIZN6open3d9pipelines8odometryL17DoSingleIterationEiiRKNS1_8geometry9RGBDImageES7_RKNS4_5ImageES7_S7_N5Eigen6MatrixIdLi3ELi3ELi0ELi3ELi3EEERKNSC_IdLi4ELi4ELi0ELi4ELi4EEERKNS3_20RGBDOdometryJacobianERKNS3_14OdometryOptionEE3$_0E10_M_managerERSt9_Any_dataRKSP_St18_Manager_operation.exit": ; preds = %3, %10, %8, %6, %5, %4
  ret i1 false
}